; Function Attrs: nounwind uwtable
define dso_local void @uv_free_cpu_info(ptr noundef %0, i32 noundef %1) local_unnamed_addr #0 {
  %3 = icmp sgt i32 %1, 0
  %4 = tail call ptr @__errno_location() #27
  br i1 %3, label %.lr.ph, label %._crit_edge

.lr.ph:                                           ; preds = %2
  %wide.trip.count = zext nneg i32 %1 to i64
  %.pre = load i32, ptr %4, align 4, !tbaa !10
  br label %5

5:                                                ; preds = %.lr.ph, %5
  %indvars.iv = phi i64 [ 0, %.lr.ph ], [ %indvars.iv.next, %5 ]
  %6 = getelementptr inbounds nuw %struct.uv_cpu_info_s, ptr %0, i64 %indvars.iv
  %7 = load ptr, ptr %6, align 8, !tbaa !93
  %8 = load ptr, ptr @uv__allocator.3, align 8, !tbaa !12
  tail call void %8(ptr noundef %7) #26
  store i32 %.pre, ptr %4, align 4, !tbaa !10
  %indvars.iv.next = add nuw nsw i64 %indvars.iv, 1
  %exitcond.not = icmp eq i64 %indvars.iv.next, %wide.trip.count
  br i1 %exitcond.not, label %._crit_edge, label %5, !llvm.loop !96

._crit_edge:                                      ; preds = %5, %2
  %9 = load i32, ptr %4, align 4, !tbaa !10
  %10 = load ptr, ptr @uv__allocator.3, align 8, !tbaa !12
  tail call void %10(ptr noundef %0) #26
  store i32 %9, ptr %4, align 4, !tbaa !10
  ret void
}